target datalayout = "e-m:e-p270:32:32-p271:32:32-p272:64:64-i64:64-i128:128-f80:128-n8:16:32:64-S128"
target triple = "x86_64-pc-linux-gnu"

; Function Attrs: mustprogress nounwind uwtable
define dso_local noundef double @_ZN4absl16strings_internal5Pow10Ei(i32 noundef %0) #0 {
  %2 = alloca double, align 8
  %3 = alloca i32, align 4
  store i32 %0, ptr %3, align 4, !tbaa !4
  %4 = load i32, ptr %3, align 4, !tbaa !4
  %5 = icmp slt i32 %4, -324
  br i1 %5, label %6, label %7

6:                                                ; preds = %1
  store double 0.000000e+00, ptr %2, align 8
  br label %17

7:                                                ; preds = %1
  %8 = load i32, ptr %3, align 4, !tbaa !4
  %9 = icmp sgt i32 %8, 308
  br i1 %9, label %10, label %11

10:                                               ; preds = %7
  store double 0x7FF0000000000000, ptr %2, align 8
  br label %17

11:                                               ; preds = %7
  %12 = load i32, ptr %3, align 4, !tbaa !4
  %13 = add nsw i32 %12, 324
  %14 = sext i32 %13 to i64
  %15 = getelementptr inbounds [633 x double], ptr @_ZN4absl16strings_internal12_GLOBAL__N_112kPowersOfTenE, i64 0, i64 %14
  %16 = load double, ptr %15, align 8, !tbaa !8
  store double %16, ptr %2, align 8
  br label %17

17:                                               ; preds = %11, %10, %6
  %18 = load double, ptr %2, align 8
  ret double %18
}