; Function Attrs: mustprogress nofree norecurse nosync nounwind willreturn memory(none) uwtable
define dso_local noundef double @_ZN4absl16strings_internal5Pow10Ei(i32 noundef %0) local_unnamed_addr #0 {
  %2 = icmp slt i32 %0, -324
  br i1 %2, label %10, label %3

3:                                                ; preds = %1
  %4 = icmp sgt i32 %0, 308
  br i1 %4, label %10, label %5

5:                                                ; preds = %3
  %6 = add nsw i32 %0, 324
  %7 = zext nneg i32 %6 to i64
  %8 = getelementptr inbounds nuw [633 x double], ptr @_ZN4absl16strings_internal12_GLOBAL__N_112kPowersOfTenE, i64 0, i64 %7
  %9 = load double, ptr %8, align 8, !tbaa !4
  br label %10

10:                                               ; preds = %3, %1, %5
  %.0 = phi double [ %9, %5 ], [ 0.000000e+00, %1 ], [ 0x7FF0000000000000, %3 ]
  ret double %.0
}